; Function Attrs: mustprogress nounwind uwtable
define internal void @_ZN12_GLOBAL__N_115MCMachOStreamer16emitCommonSymbolEPN4llvm8MCSymbolEmNS1_5AlignE(ptr noundef nonnull readonly align 8 captures(none) dereferenceable(456) %0, ptr noundef nonnull %1, i64 noundef %2, i8 %3) unnamed_addr #0 align 2 {
  %5 = getelementptr inbounds nuw i8, ptr %0, i64 288
  %6 = load ptr, ptr %5, align 8
  %7 = tail call noundef zeroext i1 @_ZN4llvm11MCAssembler14registerSymbolERKNS_8MCSymbolE(ptr noundef nonnull align 8 dereferenceable(372) %6, ptr noundef nonnull align 8 dereferenceable(32) %1) #17
  %8 = getelementptr inbounds nuw i8, ptr %1, i64 8
  %9 = load i64, ptr %8, align 8
  %10 = getelementptr inbounds nuw i8, ptr %1, i64 24
  store i64 %2, ptr %10, align 8
  %11 = and i64 %9, -1044513
  %12 = or disjoint i64 %11, 32
  %.sroa.0.0.insert.ext.i.i = zext i8 %3 to i64
  %narrow.i.i.i = shl nuw nsw i64 %.sroa.0.0.insert.ext.i.i, 15
  %13 = add nuw nsw i64 %narrow.i.i.i, 32768
  %14 = and i64 %13, 1015808
  %15 = or disjoint i64 %14, %12
  %16 = or disjoint i64 %15, 12288
  store i64 %16, ptr %8, align 8
  ret void
}